; Function Attrs: mustprogress nounwind uwtable
define void @_ZNK3spv10spirvbin_t3msgEiiRKNSt7__cxx1112basic_stringIcSt11char_traitsIcESaIcEEE(ptr nocapture noundef nonnull readonly align 8 dereferenceable(473) %0, i32 noundef %1, i32 noundef %2, ptr noundef nonnull align 8 dereferenceable(32) %3) unnamed_addr #0 align 2 {
  %5 = alloca %"class.std::__cxx11::basic_string", align 8
  %6 = alloca %"class.std::__cxx11::basic_string", align 8
  %7 = alloca %"class.std::allocator.74", align 1
  %8 = getelementptr inbounds i8, ptr %0, i64 468
  %9 = load i32, ptr %8, align 4
  %.not = icmp slt i32 %9, %1
  br i1 %.not, label %17, label %10

10:                                               ; preds = %4
  %11 = sext i32 %2 to i64
  call void @_ZNSaIcEC1Ev(ptr noundef nonnull align 1 dereferenceable(1) %7) #24
  %12 = call noundef ptr @_ZNSt7__cxx1112basic_stringIcSt11char_traitsIcESaIcEE13_M_local_dataEv(ptr noundef nonnull align 8 dereferenceable(32) %6) #24
  call void @_ZNSt7__cxx1112basic_stringIcSt11char_traitsIcESaIcEE12_Alloc_hiderC1EPcRKS3_(ptr noundef nonnull align 8 dereferenceable(8) %6, ptr noundef %12, ptr noundef nonnull align 1 dereferenceable(1) %7) #24
  call void @_ZNSt7__cxx1112basic_stringIcSt11char_traitsIcESaIcEE12_M_constructEmc(ptr noundef nonnull align 8 dereferenceable(32) %6, i64 noundef %11, i8 noundef signext 32) #24
  %13 = call noundef nonnull align 8 dereferenceable(32) ptr @_ZNSt7__cxx1112basic_stringIcSt11char_traitsIcESaIcEE6appendERKS4_(ptr noundef nonnull align 8 dereferenceable(32) %6, ptr noundef nonnull align 8 dereferenceable(32) %3) #24, !noalias !4
  call void @_ZNSt7__cxx1112basic_stringIcSt11char_traitsIcESaIcEEC1EOS4_(ptr noundef nonnull align 8 dereferenceable(32) %5, ptr noundef nonnull align 8 dereferenceable(32) %13) #24
  %14 = load ptr, ptr getelementptr inbounds (i8, ptr @_ZN3spv10spirvbin_t10logHandlerB5cxx11E, i64 16), align 8
  %.not.i.i = icmp eq ptr %14, null
  br i1 %.not.i.i, label %15, label %_ZNKSt8functionIFvRKNSt7__cxx1112basic_stringIcSt11char_traitsIcESaIcEEEEEclES7_.exit

15:                                               ; preds = %10
  call void @_ZSt25__throw_bad_function_callv() #25
  unreachable

_ZNKSt8functionIFvRKNSt7__cxx1112basic_stringIcSt11char_traitsIcESaIcEEEEEclES7_.exit: ; preds = %10
  %16 = load ptr, ptr getelementptr inbounds (i8, ptr @_ZN3spv10spirvbin_t10logHandlerB5cxx11E, i64 24), align 8
  call void %16(ptr noundef nonnull align 8 dereferenceable(16) @_ZN3spv10spirvbin_t10logHandlerB5cxx11E, ptr noundef nonnull align 8 dereferenceable(32) %5) #24
  call void @_ZNSt7__cxx1112basic_stringIcSt11char_traitsIcESaIcEED1Ev(ptr noundef nonnull align 8 dereferenceable(32) %5) #24
  call void @_ZNSt7__cxx1112basic_stringIcSt11char_traitsIcESaIcEED1Ev(ptr noundef nonnull align 8 dereferenceable(32) %6) #24
  call void @_ZNSaIcED1Ev(ptr noundef nonnull align 1 dereferenceable(1) %7) #24
  br label %17

17:                                               ; preds = %_ZNKSt8functionIFvRKNSt7__cxx1112basic_stringIcSt11char_traitsIcESaIcEEEEEclES7_.exit, %4
  ret void
}